target datalayout = "e-m:e-p270:32:32-p271:32:32-p272:64:64-i64:64-i128:128-f80:128-n8:16:32:64-S128"
target triple = "x86_64-pc-linux-gnu"

%struct.ScanKeywordList = type { ptr, ptr, ptr, i32, i32 }
%struct.PQExpBufferData = type { ptr, i64, i64 }

@quote_all_identifiers = dso_local global i32 0, align 4
@getLocalPQExpBuffer = dso_local global ptr @defaultGetLocalPQExpBuffer, align 8
@ScanKeywords = external constant %struct.ScanKeywordList, align 8
@ScanKeywordCategories = external constant [0 x i8], align 1

; Function Attrs: nounwind uwtable
define dso_local ptr @fmtIdEnc(ptr noundef %0, i32 noundef %1) #0 {
  %3 = alloca ptr, align 8
  %4 = alloca i32, align 4
  %5 = alloca ptr, align 8
  %6 = alloca ptr, align 8
  %7 = alloca i8, align 1
  %8 = alloca i64, align 8
  %9 = alloca i64, align 8
  %10 = alloca i32, align 4
  %11 = alloca i32, align 4
  %12 = alloca i32, align 4
  %13 = alloca i32, align 4
  store ptr %0, ptr %3, align 8
  store i32 %1, ptr %4, align 4
  call void @llvm.lifetime.start.p0(i64 8, ptr %5) #8
  %14 = load ptr, ptr @getLocalPQExpBuffer, align 8
  %15 = call ptr %14()
  store ptr %15, ptr %5, align 8
  call void @llvm.lifetime.start.p0(i64 8, ptr %6) #8
  call void @llvm.lifetime.start.p0(i64 1, ptr %7) #8
  store i8 0, ptr %7, align 1
  call void @llvm.lifetime.start.p0(i64 8, ptr %8) #8
  %16 = load ptr, ptr %3, align 8
  %17 = call i64 @strlen(ptr noundef %16) #9
  store i64 %17, ptr %8, align 8
  %18 = load i32, ptr @quote_all_identifiers, align 4
  %19 = icmp ne i32 %18, 0
  br i1 %19, label %20, label %21

20:                                               ; preds = %2
  store i8 1, ptr %7, align 1
  br label %82

21:                                               ; preds = %2
  %22 = load ptr, ptr %3, align 8
  %23 = getelementptr inbounds i8, ptr %22, i64 0
  %24 = load i8, ptr %23, align 1
  %25 = sext i8 %24 to i32
  %26 = icmp sge i32 %25, 97
  br i1 %26, label %27, label %33

27:                                               ; preds = %21
  %28 = load ptr, ptr %3, align 8
  %29 = getelementptr inbounds i8, ptr %28, i64 0
  %30 = load i8, ptr %29, align 1
  %31 = sext i8 %30 to i32
  %32 = icmp sle i32 %31, 122
  br i1 %32, label %40, label %33

33:                                               ; preds = %27, %21
  %34 = load ptr, ptr %3, align 8
  %35 = getelementptr inbounds i8, ptr %34, i64 0
  %36 = load i8, ptr %35, align 1
  %37 = sext i8 %36 to i32
  %38 = icmp eq i32 %37, 95
  br i1 %38, label %40, label %39

39:                                               ; preds = %33
  store i8 1, ptr %7, align 1
  br label %81

40:                                               ; preds = %33, %27
  %41 = load ptr, ptr %3, align 8
  store ptr %41, ptr %6, align 8
  call void @llvm.lifetime.start.p0(i64 8, ptr %9) #8
  store i64 0, ptr %9, align 8
  br label %42

42:                                               ; preds = %74, %40
  %43 = load i64, ptr %9, align 8
  %44 = load i64, ptr %8, align 8
  %45 = icmp ult i64 %43, %44
  br i1 %45, label %47, label %46

46:                                               ; preds = %42
  store i32 2, ptr %10, align 4
  br label %79

47:                                               ; preds = %42
  %48 = load ptr, ptr %6, align 8
  %49 = load i8, ptr %48, align 1
  %50 = sext i8 %49 to i32
  %51 = icmp sge i32 %50, 97
  br i1 %51, label %52, label %57

52:                                               ; preds = %47
  %53 = load ptr, ptr %6, align 8
  %54 = load i8, ptr %53, align 1
  %55 = sext i8 %54 to i32
  %56 = icmp sle i32 %55, 122
  br i1 %56, label %73, label %57

57:                                               ; preds = %52, %47
  %58 = load ptr, ptr %6, align 8
  %59 = load i8, ptr %58, align 1
  %60 = sext i8 %59 to i32
  %61 = icmp sge i32 %60, 48
  br i1 %61, label %62, label %67

62:                                               ; preds = %57
  %63 = load ptr, ptr %6, align 8
  %64 = load i8, ptr %63, align 1
  %65 = sext i8 %64 to i32
  %66 = icmp sle i32 %65, 57
  br i1 %66, label %73, label %67

67:                                               ; preds = %62, %57
  %68 = load ptr, ptr %6, align 8
  %69 = load i8, ptr %68, align 1
  %70 = sext i8 %69 to i32
  %71 = icmp eq i32 %70, 95
  br i1 %71, label %73, label %72

72:                                               ; preds = %67
  store i8 1, ptr %7, align 1
  store i32 2, ptr %10, align 4
  br label %79

73:                                               ; preds = %67, %62, %52
  br label %74

74:                                               ; preds = %73
  %75 = load i64, ptr %9, align 8
  %76 = add i64 %75, 1
  store i64 %76, ptr %9, align 8
  %77 = load ptr, ptr %6, align 8
  %78 = getelementptr inbounds nuw i8, ptr %77, i32 1
  store ptr %78, ptr %6, align 8
  br label %42, !llvm.loop !4

79:                                               ; preds = %72, %46
  call void @llvm.lifetime.end.p0(i64 8, ptr %9) #8
  br label %80

80:                                               ; preds = %79
  br label %81

81:                                               ; preds = %80, %39
  br label %82

82:                                               ; preds = %81, %20
  %83 = load i8, ptr %7, align 1, !range !6, !noundef !7
  %84 = trunc i8 %83 to i1
  br i1 %84, label %99, label %85

85:                                               ; preds = %82
  call void @llvm.lifetime.start.p0(i64 4, ptr %11) #8
  %86 = load ptr, ptr %3, align 8
  %87 = call i32 @ScanKeywordLookup(ptr noundef %86, ptr noundef @ScanKeywords)
  store i32 %87, ptr %11, align 4
  %88 = load i32, ptr %11, align 4
  %89 = icmp sge i32 %88, 0
  br i1 %89, label %90, label %98

90:                                               ; preds = %85
  %91 = load i32, ptr %11, align 4
  %92 = sext i32 %91 to i64
  %93 = getelementptr inbounds [0 x i8], ptr @ScanKeywordCategories, i64 0, i64 %92
  %94 = load i8, ptr %93, align 1
  %95 = zext i8 %94 to i32
  %96 = icmp ne i32 %95, 0
  br i1 %96, label %97, label %98

97:                                               ; preds = %90
  store i8 1, ptr %7, align 1
  br label %98

98:                                               ; preds = %97, %90, %85
  call void @llvm.lifetime.end.p0(i64 4, ptr %11) #8
  br label %99

99:                                               ; preds = %98, %82
  %100 = load i8, ptr %7, align 1, !range !6, !noundef !7
  %101 = trunc i8 %100 to i1
  br i1 %101, label %105, label %102

102:                                              ; preds = %99
  %103 = load ptr, ptr %5, align 8
  %104 = load ptr, ptr %3, align 8
  call void @appendPQExpBufferStr(ptr noundef %103, ptr noundef %104)
  br label %200

105:                                              ; preds = %99
  %106 = load ptr, ptr %5, align 8
  call void @appendPQExpBufferChar(ptr noundef %106, i8 noundef signext 34)
  %107 = load ptr, ptr %3, align 8
  %108 = getelementptr inbounds i8, ptr %107, i64 0
  store ptr %108, ptr %6, align 8
  br label %109

109:                                              ; preds = %197, %195, %105
  %110 = load i64, ptr %8, align 8
  %111 = icmp ugt i64 %110, 0
  br i1 %111, label %112, label %198

112:                                              ; preds = %109
  call void @llvm.lifetime.start.p0(i64 4, ptr %12) #8
  %113 = load ptr, ptr %6, align 8
  %114 = load i8, ptr %113, align 1
  %115 = zext i8 %114 to i32
  %116 = and i32 %115, 128
  %117 = icmp ne i32 %116, 0
  br i1 %117, label %133, label %118

118:                                              ; preds = %112
  %119 = load ptr, ptr %6, align 8
  %120 = load i8, ptr %119, align 1
  %121 = sext i8 %120 to i32
  %122 = icmp eq i32 %121, 34
  br i1 %122, label %123, label %125

123:                                              ; preds = %118
  %124 = load ptr, ptr %5, align 8
  call void @appendPQExpBufferChar(ptr noundef %124, i8 noundef signext 34)
  br label %125

125:                                              ; preds = %123, %118
  %126 = load ptr, ptr %5, align 8
  %127 = load ptr, ptr %6, align 8
  %128 = load i8, ptr %127, align 1
  call void @appendPQExpBufferChar(ptr noundef %126, i8 noundef signext %128)
  %129 = load i64, ptr %8, align 8
  %130 = add i64 %129, -1
  store i64 %130, ptr %8, align 8
  %131 = load ptr, ptr %6, align 8
  %132 = getelementptr inbounds nuw i8, ptr %131, i32 1
  store ptr %132, ptr %6, align 8
  store i32 5, ptr %10, align 4
  br label %195, !llvm.loop !8

133:                                              ; preds = %112
  %134 = load i32, ptr %4, align 4
  %135 = load ptr, ptr %6, align 8
  %136 = call i32 @pg_encoding_mblen(i32 noundef %134, ptr noundef %135)
  store i32 %136, ptr %12, align 4
  %137 = load i64, ptr %8, align 8
  %138 = load i32, ptr %12, align 4
  %139 = sext i32 %138 to i64
  %140 = icmp ult i64 %137, %139
  br i1 %140, label %147, label %141

141:                                              ; preds = %133
  %142 = load i32, ptr %4, align 4
  %143 = load ptr, ptr %6, align 8
  %144 = load i32, ptr %12, align 4
  %145 = call i32 @pg_encoding_verifymbchar(i32 noundef %142, ptr noundef %143, i32 noundef %144)
  %146 = icmp eq i32 %145, -1
  br i1 %146, label %147, label %176

147:                                              ; preds = %141, %133
  %148 = load ptr, ptr %5, align 8
  %149 = call i32 @enlargePQExpBuffer(ptr noundef %148, i64 noundef 2)
  %150 = icmp ne i32 %149, 0
  br i1 %150, label %151, label %171

151:                                              ; preds = %147
  %152 = load i32, ptr %4, align 4
  %153 = load ptr, ptr %5, align 8
  %154 = getelementptr inbounds nuw %struct.PQExpBufferData, ptr %153, i32 0, i32 0
  %155 = load ptr, ptr %154, align 8
  %156 = load ptr, ptr %5, align 8
  %157 = getelementptr inbounds nuw %struct.PQExpBufferData, ptr %156, i32 0, i32 1
  %158 = load i64, ptr %157, align 8
  %159 = getelementptr inbounds nuw i8, ptr %155, i64 %158
  call void @pg_encoding_set_invalid(i32 noundef %152, ptr noundef %159)
  %160 = load ptr, ptr %5, align 8
  %161 = getelementptr inbounds nuw %struct.PQExpBufferData, ptr %160, i32 0, i32 1
  %162 = load i64, ptr %161, align 8
  %163 = add i64 %162, 2
  store i64 %163, ptr %161, align 8
  %164 = load ptr, ptr %5, align 8
  %165 = getelementptr inbounds nuw %struct.PQExpBufferData, ptr %164, i32 0, i32 0
  %166 = load ptr, ptr %165, align 8
  %167 = load ptr, ptr %5, align 8
  %168 = getelementptr inbounds nuw %struct.PQExpBufferData, ptr %167, i32 0, i32 1
  %169 = load i64, ptr %168, align 8
  %170 = getelementptr inbounds nuw i8, ptr %166, i64 %169
  store i8 0, ptr %170, align 1
  br label %171

171:                                              ; preds = %151, %147
  %172 = load i64, ptr %8, align 8
  %173 = add i64 %172, -1
  store i64 %173, ptr %8, align 8
  %174 = load ptr, ptr %6, align 8
  %175 = getelementptr inbounds nuw i8, ptr %174, i32 1
  store ptr %175, ptr %6, align 8
  br label %194

176:                                              ; preds = %141
  call void @llvm.lifetime.start.p0(i64 4, ptr %13) #8
  store i32 0, ptr %13, align 4
  br label %177

177:                                              ; preds = %190, %176
  %178 = load i32, ptr %13, align 4
  %179 = load i32, ptr %12, align 4
  %180 = icmp slt i32 %178, %179
  br i1 %180, label %182, label %181

181:                                              ; preds = %177
  store i32 7, ptr %10, align 4
  call void @llvm.lifetime.end.p0(i64 4, ptr %13) #8
  br label %193

182:                                              ; preds = %177
  %183 = load ptr, ptr %5, align 8
  %184 = load ptr, ptr %6, align 8
  %185 = load i8, ptr %184, align 1
  call void @appendPQExpBufferChar(ptr noundef %183, i8 noundef signext %185)
  %186 = load i64, ptr %8, align 8
  %187 = add i64 %186, -1
  store i64 %187, ptr %8, align 8
  %188 = load ptr, ptr %6, align 8
  %189 = getelementptr inbounds nuw i8, ptr %188, i32 1
  store ptr %189, ptr %6, align 8
  br label %190

190:                                              ; preds = %182
  %191 = load i32, ptr %13, align 4
  %192 = add i32 %191, 1
  store i32 %192, ptr %13, align 4
  br label %177, !llvm.loop !9

193:                                              ; preds = %181
  br label %194

194:                                              ; preds = %193, %171
  store i32 0, ptr %10, align 4
  br label %195

195:                                              ; preds = %194, %125
  call void @llvm.lifetime.end.p0(i64 4, ptr %12) #8
  %196 = load i32, ptr %10, align 4
  switch i32 %196, label %204 [
    i32 0, label %197
    i32 5, label %109
  ]

197:                                              ; preds = %195
  br label %109, !llvm.loop !8

198:                                              ; preds = %109
  %199 = load ptr, ptr %5, align 8
  call void @appendPQExpBufferChar(ptr noundef %199, i8 noundef signext 34)
  br label %200

200:                                              ; preds = %198, %102
  %201 = load ptr, ptr %5, align 8
  %202 = getelementptr inbounds nuw %struct.PQExpBufferData, ptr %201, i32 0, i32 0
  %203 = load ptr, ptr %202, align 8
  store i32 1, ptr %10, align 4
  call void @llvm.lifetime.end.p0(i64 8, ptr %8) #8
  call void @llvm.lifetime.end.p0(i64 1, ptr %7) #8
  call void @llvm.lifetime.end.p0(i64 8, ptr %6) #8
  call void @llvm.lifetime.end.p0(i64 8, ptr %5) #8
  ret ptr %203

204:                                              ; preds = %195
  unreachable
}