; Function Attrs: nounwind uwtable
define dso_local ptr @fmtIdEnc(ptr noundef %0, i32 noundef %1) local_unnamed_addr #0 {
  %3 = load ptr, ptr @getLocalPQExpBuffer, align 8
  %4 = tail call ptr %3() #11
  %5 = tail call i64 @strlen(ptr noundef nonnull dereferenceable(1) %0) #12
  %6 = load i32, ptr @quote_all_identifiers, align 4
  %.not = icmp eq i32 %6, 0
  br i1 %.not, label %7, label %.thread76

7:                                                ; preds = %2
  %8 = load i8, ptr %0, align 1
  %9 = add i8 %8, -97
  %or.cond = icmp ult i8 %9, 26
  %10 = icmp eq i8 %8, 95
  %or.cond80 = or i1 %10, %or.cond
  br i1 %or.cond80, label %.preheader82, label %.thread76

.preheader82:                                     ; preds = %7
  %.not95 = icmp eq i64 %5, 0
  br i1 %.not95, label %._crit_edge, label %.lr.ph

.lr.ph:                                           ; preds = %.preheader82, %16
  %.05584 = phi ptr [ %18, %16 ], [ %0, %.preheader82 ]
  %.06083 = phi i64 [ %17, %16 ], [ 0, %.preheader82 ]
  %11 = load i8, ptr %.05584, align 1
  %12 = add i8 %11, -97
  %or.cond73 = icmp ult i8 %12, 26
  br i1 %or.cond73, label %16, label %13

13:                                               ; preds = %.lr.ph
  %14 = add i8 %11, -48
  %or.cond74 = icmp ult i8 %14, 10
  %15 = icmp eq i8 %11, 95
  %or.cond81 = or i1 %15, %or.cond74
  br i1 %or.cond81, label %16, label %.thread76

16:                                               ; preds = %13, %.lr.ph
  %17 = add nuw i64 %.06083, 1
  %18 = getelementptr inbounds nuw i8, ptr %.05584, i64 1
  %exitcond.not = icmp eq i64 %17, %5
  br i1 %exitcond.not, label %._crit_edge, label %.lr.ph, !llvm.loop !4

._crit_edge:                                      ; preds = %16, %.preheader82
  %19 = tail call i32 @ScanKeywordLookup(ptr noundef nonnull %0, ptr noundef nonnull @ScanKeywords) #11
  %20 = icmp sgt i32 %19, -1
  br i1 %20, label %21, label %.thread78

21:                                               ; preds = %._crit_edge
  %22 = zext nneg i32 %19 to i64
  %23 = getelementptr inbounds nuw [0 x i8], ptr @ScanKeywordCategories, i64 0, i64 %22
  %24 = load i8, ptr %23, align 1
  %.not69.not = icmp eq i8 %24, 0
  br i1 %.not69.not, label %.thread78, label %.thread76

.thread78:                                        ; preds = %._crit_edge, %21
  tail call void @appendPQExpBufferStr(ptr noundef %4, ptr noundef nonnull %0) #11
  br label %60

.thread76:                                        ; preds = %13, %7, %2, %21
  tail call void @appendPQExpBufferChar(ptr noundef %4, i8 noundef signext 34) #11
  %.not7090 = icmp eq i64 %5, 0
  br i1 %.not7090, label %._crit_edge94, label %.lr.ph93

.lr.ph93:                                         ; preds = %.thread76
  %25 = getelementptr inbounds nuw i8, ptr %4, i64 8
  br label %26

26:                                               ; preds = %.lr.ph93, %.loopexit
  %.192 = phi ptr [ %0, %.lr.ph93 ], [ %.2, %.loopexit ]
  %.06191 = phi i64 [ %5, %.lr.ph93 ], [ %.162, %.loopexit ]
  %27 = load i8, ptr %.192, align 1
  %.not71 = icmp sgt i8 %27, -1
  br i1 %.not71, label %28, label %35

28:                                               ; preds = %26
  %29 = icmp eq i8 %27, 34
  br i1 %29, label %30, label %31

30:                                               ; preds = %28
  tail call void @appendPQExpBufferChar(ptr noundef %4, i8 noundef signext 34) #11
  %.pre = load i8, ptr %.192, align 1
  br label %31

31:                                               ; preds = %30, %28
  %32 = phi i8 [ %.pre, %30 ], [ %27, %28 ]
  tail call void @appendPQExpBufferChar(ptr noundef %4, i8 noundef signext %32) #11
  %33 = add i64 %.06191, -1
  %34 = getelementptr inbounds nuw i8, ptr %.192, i64 1
  br label %.loopexit, !llvm.loop !6

35:                                               ; preds = %26
  %36 = tail call i32 @pg_encoding_mblen(i32 noundef %1, ptr noundef nonnull %.192) #11
  %37 = sext i32 %36 to i64
  %38 = icmp ult i64 %.06191, %37
  br i1 %38, label %43, label %39

39:                                               ; preds = %35
  %40 = tail call i32 @pg_encoding_verifymbchar(i32 noundef %1, ptr noundef nonnull %.192, i32 noundef %36) #11
  %41 = icmp eq i32 %40, -1
  br i1 %41, label %43, label %.preheader

.preheader:                                       ; preds = %39
  %42 = icmp sgt i32 %36, 0
  br i1 %42, label %.lr.ph88, label %.loopexit

43:                                               ; preds = %39, %35
  %44 = tail call i32 @enlargePQExpBuffer(ptr noundef %4, i64 noundef 2) #11
  %.not72 = icmp eq i32 %44, 0
  br i1 %.not72, label %53, label %45

45:                                               ; preds = %43
  %46 = load ptr, ptr %4, align 8
  %47 = load i64, ptr %25, align 8
  %48 = getelementptr inbounds nuw i8, ptr %46, i64 %47
  tail call void @pg_encoding_set_invalid(i32 noundef %1, ptr noundef %48) #11
  %49 = load i64, ptr %25, align 8
  %50 = add i64 %49, 2
  store i64 %50, ptr %25, align 8
  %51 = load ptr, ptr %4, align 8
  %52 = getelementptr inbounds nuw i8, ptr %51, i64 %50
  store i8 0, ptr %52, align 1
  br label %53

53:                                               ; preds = %45, %43
  %54 = add i64 %.06191, -1
  %55 = getelementptr inbounds nuw i8, ptr %.192, i64 1
  br label %.loopexit

.lr.ph88:                                         ; preds = %.preheader, %.lr.ph88
  %.087 = phi i32 [ %59, %.lr.ph88 ], [ 0, %.preheader ]
  %.486 = phi ptr [ %58, %.lr.ph88 ], [ %.192, %.preheader ]
  %.36485 = phi i64 [ %57, %.lr.ph88 ], [ %.06191, %.preheader ]
  %56 = load i8, ptr %.486, align 1
  tail call void @appendPQExpBufferChar(ptr noundef %4, i8 noundef signext %56) #11
  %57 = add i64 %.36485, -1
  %58 = getelementptr inbounds nuw i8, ptr %.486, i64 1
  %59 = add nuw nsw i32 %.087, 1
  %exitcond97.not = icmp eq i32 %59, %36
  br i1 %exitcond97.not, label %.loopexit, label %.lr.ph88, !llvm.loop !7

.loopexit:                                        ; preds = %.lr.ph88, %.preheader, %53, %31
  %.162 = phi i64 [ %33, %31 ], [ %54, %53 ], [ %.06191, %.preheader ], [ %57, %.lr.ph88 ]
  %.2 = phi ptr [ %34, %31 ], [ %55, %53 ], [ %.192, %.preheader ], [ %58, %.lr.ph88 ]
  %.not70 = icmp eq i64 %.162, 0
  br i1 %.not70, label %._crit_edge94, label %26

._crit_edge94:                                    ; preds = %.loopexit, %.thread76
  tail call void @appendPQExpBufferChar(ptr noundef %4, i8 noundef signext 34) #11
  br label %60

60:                                               ; preds = %._crit_edge94, %.thread78
  %61 = load ptr, ptr %4, align 8
  ret ptr %61
}